; Function Attrs: mustprogress uwtable
define noundef i32 @_ZN7openvdb5v11_02io12getGridClassERSt8ios_base(ptr noundef nonnull align 8 dereferenceable(216) %strm) local_unnamed_addr #6 personality ptr @__gxx_personality_v0 {
entry:
  %0 = load atomic i8, ptr @_ZGVZN7openvdb5v11_02io12_GLOBAL__N_113GetSteamStateEvE12sStreamState acquire, align 8
  %guard.uninitialized.i = icmp eq i8 %0, 0
  br i1 %guard.uninitialized.i, label %init.check.i, label %_ZN7openvdb5v11_02io12_GLOBAL__N_113GetSteamStateEv.exit, !prof !8

init.check.i:                                     ; preds = %entry
  %1 = tail call i32 @__cxa_guard_acquire(ptr nonnull @_ZGVZN7openvdb5v11_02io12_GLOBAL__N_113GetSteamStateEvE12sStreamState) #25
  %tobool.not.i = icmp eq i32 %1, 0
  br i1 %tobool.not.i, label %_ZN7openvdb5v11_02io12_GLOBAL__N_113GetSteamStateEv.exit, label %init.i

init.i:                                           ; preds = %init.check.i
  invoke fastcc void @_ZN7openvdb5v11_02io12_GLOBAL__N_111StreamStateC2Ev()
          to label %invoke.cont.i unwind label %lpad.i

invoke.cont.i:                                    ; preds = %init.i
  %2 = tail call i32 @__cxa_atexit(ptr nonnull @_ZN7openvdb5v11_02io12_GLOBAL__N_111StreamStateD2Ev, ptr nonnull @_ZZN7openvdb5v11_02io12_GLOBAL__N_113GetSteamStateEvE12sStreamState, ptr nonnull @__dso_handle) #25
  tail call void @__cxa_guard_release(ptr nonnull @_ZGVZN7openvdb5v11_02io12_GLOBAL__N_113GetSteamStateEvE12sStreamState) #25
  br label %_ZN7openvdb5v11_02io12_GLOBAL__N_113GetSteamStateEv.exit

lpad.i:                                           ; preds = %init.i
  %3 = landingpad { ptr, i32 }
          cleanup
  tail call void @__cxa_guard_abort(ptr nonnull @_ZGVZN7openvdb5v11_02io12_GLOBAL__N_113GetSteamStateEvE12sStreamState) #25
  resume { ptr, i32 } %3

_ZN7openvdb5v11_02io12_GLOBAL__N_113GetSteamStateEv.exit: ; preds = %entry, %init.check.i, %invoke.cont.i
  %4 = load i32, ptr getelementptr inbounds (%"struct.openvdb::v11_0::io::(anonymous namespace)::StreamState", ptr @_ZZN7openvdb5v11_02io12_GLOBAL__N_113GetSteamStateEvE12sStreamState, i64 0, i32 7), align 4
  %_M_word_size.i = getelementptr inbounds i8, ptr %strm, i64 192
  %5 = load i32, ptr %_M_word_size.i, align 8
  %cmp.i = icmp ugt i32 %5, %4
  br i1 %cmp.i, label %cond.true.i, label %cond.false.i

cond.true.i:                                      ; preds = %_ZN7openvdb5v11_02io12_GLOBAL__N_113GetSteamStateEv.exit
  %_M_word.i = getelementptr inbounds i8, ptr %strm, i64 200
  %6 = load ptr, ptr %_M_word.i, align 8
  %idxprom.i = sext i32 %4 to i64
  %arrayidx.i = getelementptr inbounds %"struct.std::ios_base::_Words", ptr %6, i64 %idxprom.i
  br label %_ZNSt8ios_base5iwordEi.exit

cond.false.i:                                     ; preds = %_ZN7openvdb5v11_02io12_GLOBAL__N_113GetSteamStateEv.exit
  %call.i = tail call noundef nonnull align 8 dereferenceable(16) ptr @_ZNSt8ios_base13_M_grow_wordsEib(ptr noundef nonnull align 8 dereferenceable(216) %strm, i32 noundef %4, i1 noundef zeroext true)
  br label %_ZNSt8ios_base5iwordEi.exit

_ZNSt8ios_base5iwordEi.exit:                      ; preds = %cond.true.i, %cond.false.i
  %cond-lvalue.i = phi ptr [ %arrayidx.i, %cond.true.i ], [ %call.i, %cond.false.i ]
  %_M_iword.i = getelementptr inbounds i8, ptr %cond-lvalue.i, i64 8
  %7 = load i64, ptr %_M_iword.i, align 8
  %conv = trunc i64 %7 to i32
  %cmp = icmp ugt i32 %conv, 3
  %.conv = select i1 %cmp, i32 0, i32 %conv
  ret i32 %.conv
}